	.file	"SEColor(s).cpp"
	.text
	.align 2
	.globl	_ZN4slay6engine6actors5actor6colorsC2ERS0_RS2_
	.type	_ZN4slay6engine6actors5actor6colorsC2ERS0_RS2_, @function
_ZN4slay6engine6actors5actor6colorsC2ERS0_RS2_:
.LFB2197:
	.cfi_startproc
	pushq	%rbp
	.cfi_def_cfa_offset 16
	.cfi_offset 6, -16
	movq	%rsp, %rbp
	.cfi_def_cfa_register 6
	pushq	%rbx
	subq	$56, %rsp
	.cfi_offset 3, -24
	movq	%rdi, -40(%rbp)
	movq	%rsi, -48(%rbp)
	movq	%rdx, -56(%rbp)
	movq	%fs:40, %rax
	movq	%rax, -24(%rbp)
	xorl	%eax, %eax
	movq	-40(%rbp), %rax
	movq	-48(%rbp), %rdx
	movq	%rdx, (%rax)
	movq	-40(%rbp), %rax
	movq	-56(%rbp), %rdx
	movq	%rdx, 8(%rax)
	movq	-40(%rbp), %rax
	addq	$16, %rax
	movq	$0, -32(%rbp)
	leaq	-32(%rbp), %rdx
	movq	%rdx, %rcx
	movl	$1, %ebx
	movq	%rcx, %r8
	movq	%rbx, %r9
	movq	%rcx, %rsi
	movq	%rbx, %rdi
	movq	%r8, %rcx
	movq	%rdi, %rdx
	movq	%rcx, %rsi
	movq	%rax, %rdi
	call	_ZN3neo5arrayIPN4slay6engine6actors5actor6colors5colorEEC1ESt16initializer_listIS7_E
	nop
	movq	-24(%rbp), %rax
	subq	%fs:40, %rax
	je	.L2
	call	__stack_chk_fail@PLT
.L2:
	movq	-8(%rbp), %rbx
	leave
	.cfi_def_cfa 7, 8
	ret
	.cfi_endproc
.LFE2197:
	.size	_ZN4slay6engine6actors5actor6colorsC2ERS0_RS2_, .-_ZN4slay6engine6actors5actor6colorsC2ERS0_RS2_
	.globl	_ZN4slay6engine6actors5actor6colorsC1ERS0_RS2_
	.set	_ZN4slay6engine6actors5actor6colorsC1ERS0_RS2_,_ZN4slay6engine6actors5actor6colorsC2ERS0_RS2_
	.align 2
	.globl	_ZN4slay6engine6actors5actor6colorsD2Ev
	.type	_ZN4slay6engine6actors5actor6colorsD2Ev, @function
_ZN4slay6engine6actors5actor6colorsD2Ev:
.LFB2200:
	.cfi_startproc
	.cfi_personality 0x9b,DW.ref.__gxx_personality_v0
	.cfi_lsda 0x1b,.LLSDA2200
	pushq	%rbp
	.cfi_def_cfa_offset 16
	.cfi_offset 6, -16
	movq	%rsp, %rbp
	.cfi_def_cfa_register 6
	subq	$32, %rsp
	movq	%rdi, -24(%rbp)
	movq	$1, -8(%rbp)
	jmp	.L4
.L6:
	movq	-24(%rbp), %rax
	leaq	16(%rax), %rdx
	movq	-8(%rbp), %rax
	movq	%rax, %rsi
	movq	%rdx, %rdi
	call	_ZN3neo5arrayIPN4slay6engine6actors5actor6colors5colorEEixEy
	movq	(%rax), %rax
	testq	%rax, %rax
	je	.L5
	movl	$56, %esi
	movq	%rax, %rdi
	call	_ZdlPvm@PLT
.L5:
	addq	$1, -8(%rbp)
.L4:
	movq	-24(%rbp), %rax
	addq	$16, %rax
	movq	%rax, %rdi
	call	_ZN3neo5arrayIPN4slay6engine6actors5actor6colors5colorEE6LengthEv
	cmpq	%rax, -8(%rbp)
	setb	%al
	testb	%al, %al
	jne	.L6
	movq	-24(%rbp), %rax
	addq	$16, %rax
	movq	%rax, %rdi
	call	_ZN3neo5arrayIPN4slay6engine6actors5actor6colors5colorEED1Ev
	nop
	leave
	.cfi_def_cfa 7, 8
	ret
	.cfi_endproc
.LFE2200:
	.globl	__gxx_personality_v0
	.section	.gcc_except_table,"a",@progbits
.LLSDA2200:
	.byte	0xff
	.byte	0xff
	.byte	0x1
	.uleb128 .LLSDACSE2200-.LLSDACSB2200
.LLSDACSB2200:
.LLSDACSE2200:
	.text
	.size	_ZN4slay6engine6actors5actor6colorsD2Ev, .-_ZN4slay6engine6actors5actor6colorsD2Ev
	.globl	_ZN4slay6engine6actors5actor6colorsD1Ev
	.set	_ZN4slay6engine6actors5actor6colorsD1Ev,_ZN4slay6engine6actors5actor6colorsD2Ev
	.section	.rodata
	.align 8
.LC0:
	.string	"slay::engine.actors[].colors.New(): Memory allocation failed"
	.text
	.align 2
	.globl	_ZN4slay6engine6actors5actor6colors3NewEv
	.type	_ZN4slay6engine6actors5actor6colors3NewEv, @function
_ZN4slay6engine6actors5actor6colors3NewEv:
.LFB2202:
	.cfi_startproc
	.cfi_personality 0x9b,DW.ref.__gxx_personality_v0
	.cfi_lsda 0x1b,.LLSDA2202
	pushq	%rbp
	.cfi_def_cfa_offset 16
	.cfi_offset 6, -16
	movq	%rsp, %rbp
	.cfi_def_cfa_register 6
	pushq	%r14
	pushq	%r13
	pushq	%r12
	pushq	%rbx
	subq	$48, %rsp
	.cfi_offset 14, -24
	.cfi_offset 13, -32
	.cfi_offset 12, -40
	.cfi_offset 3, -48
	movq	%rdi, -72(%rbp)
	movq	%fs:40, %rax
	movq	%rax, -40(%rbp)
	xorl	%eax, %eax
	movq	$1, -56(%rbp)
	jmp	.L8
.L12:
	movq	-72(%rbp), %rax
	leaq	16(%rax), %rdx
	movq	-56(%rbp), %rax
	movq	%rax, %rsi
	movq	%rdx, %rdi
.LEHB0:
	call	_ZN3neo5arrayIPN4slay6engine6actors5actor6colors5colorEEixEy
	movq	(%rax), %rax
	testq	%rax, %rax
	sete	%al
	testb	%al, %al
	je	.L9
	movl	$56, %edi
	call	_Znwm@PLT
.LEHE0:
	movq	%rax, %rbx
	movq	-72(%rbp), %rax
	movq	8(%rax), %rdx
	movq	-72(%rbp), %rax
	movq	(%rax), %rax
	movq	%rax, %rsi
	movq	%rbx, %rdi
	call	_ZN4slay6engine6actors5actor6colors5colorC1ERS0_RS2_
	movl	$0, %r13d
	movq	-72(%rbp), %rax
	leaq	16(%rax), %rdx
	movq	-56(%rbp), %rax
	movq	%rax, %rsi
	movq	%rdx, %rdi
.LEHB1:
	call	_ZN3neo5arrayIPN4slay6engine6actors5actor6colors5colorEEixEy
.LEHE1:
	movq	%rbx, (%rax)
	movq	(%rax), %rax
	testq	%rax, %rax
	sete	%al
	testb	%al, %al
	je	.L10
	leaq	.LC0(%rip), %rax
	movq	%rax, %rdi
.LEHB2:
	call	puts@PLT
	movl	$1, %edi
	call	exit@PLT
.L10:
	movq	-56(%rbp), %rax
	jmp	.L11
.L9:
	addq	$1, -56(%rbp)
.L8:
	movq	-72(%rbp), %rax
	addq	$16, %rax
	movq	%rax, %rdi
	call	_ZN3neo5arrayIPN4slay6engine6actors5actor6colors5colorEE6LengthEv
	cmpq	%rax, -56(%rbp)
	setb	%al
	testb	%al, %al
	jne	.L12
	movl	$56, %edi
	call	_Znwm@PLT
.LEHE2:
	movq	%rax, %rbx
	movq	-72(%rbp), %rax
	movq	8(%rax), %rdx
	movq	-72(%rbp), %rax
	movq	(%rax), %rax
	movq	%rax, %rsi
	movq	%rbx, %rdi
	call	_ZN4slay6engine6actors5actor6colors5colorC1ERS0_RS2_
	movl	$0, %r14d
	movq	%rbx, -48(%rbp)
	leaq	-48(%rbp), %rax
	movq	%rax, %r12
	movl	$1, %r13d
	movq	-72(%rbp), %rax
	addq	$16, %rax
	movq	%r12, %r8
	movq	%r13, %r9
	movq	%r12, %rsi
	movq	%r13, %rdi
	movq	%r8, %rcx
	movq	%rdi, %rdx
	movq	%rcx, %rsi
	movq	%rax, %rdi
.LEHB3:
	call	_ZN3neo5arrayIPN4slay6engine6actors5actor6colors5colorEEpLESt16initializer_listIS7_E
	movq	%rax, %r12
	movq	-72(%rbp), %rax
	addq	$16, %rax
	movq	%rax, %rdi
	call	_ZN3neo5arrayIPN4slay6engine6actors5actor6colors5colorEE6LengthEv
	subq	$1, %rax
	movq	%rax, %rsi
	movq	%r12, %rdi
	call	_ZN3neo5arrayIPN4slay6engine6actors5actor6colors5colorEEixEy
.LEHE3:
	movq	(%rax), %rax
	testq	%rax, %rax
	sete	%al
	testb	%al, %al
	je	.L13
	leaq	.LC0(%rip), %rax
	movq	%rax, %rdi
.LEHB4:
	call	puts@PLT
	movl	$1, %edi
	call	exit@PLT
.L13:
	movq	-72(%rbp), %rax
	addq	$16, %rax
	movq	%rax, %rdi
	call	_ZN3neo5arrayIPN4slay6engine6actors5actor6colors5colorEE6LengthEv
	subq	$1, %rax
.L11:
	movq	-40(%rbp), %rdx
	subq	%fs:40, %rdx
	je	.L20
	jmp	.L23
.L21:
	movq	%rax, %r12
	testb	%r13b, %r13b
	je	.L15
	movl	$56, %esi
	movq	%rbx, %rdi
	call	_ZdlPvm@PLT
.L15:
	movq	%r12, %rax
	movq	-40(%rbp), %rdx
	subq	%fs:40, %rdx
	je	.L16
	call	__stack_chk_fail@PLT
.L16:
	movq	%rax, %rdi
	call	_Unwind_Resume@PLT
.L22:
	movq	%rax, %r12
	testb	%r14b, %r14b
	je	.L18
	movl	$56, %esi
	movq	%rbx, %rdi
	call	_ZdlPvm@PLT
.L18:
	movq	%r12, %rax
	movq	-40(%rbp), %rdx
	subq	%fs:40, %rdx
	je	.L19
	call	__stack_chk_fail@PLT
.L19:
	movq	%rax, %rdi
	call	_Unwind_Resume@PLT
.LEHE4:
.L23:
	call	__stack_chk_fail@PLT
.L20:
	addq	$48, %rsp
	popq	%rbx
	popq	%r12
	popq	%r13
	popq	%r14
	popq	%rbp
	.cfi_def_cfa 7, 8
	ret
	.cfi_endproc
.LFE2202:
	.section	.gcc_except_table
.LLSDA2202:
	.byte	0xff
	.byte	0xff
	.byte	0x1
	.uleb128 .LLSDACSE2202-.LLSDACSB2202
.LLSDACSB2202:
	.uleb128 .LEHB0-.LFB2202
	.uleb128 .LEHE0-.LEHB0
	.uleb128 0
	.uleb128 0
	.uleb128 .LEHB1-.LFB2202
	.uleb128 .LEHE1-.LEHB1
	.uleb128 .L21-.LFB2202
	.uleb128 0
	.uleb128 .LEHB2-.LFB2202
	.uleb128 .LEHE2-.LEHB2
	.uleb128 0
	.uleb128 0
	.uleb128 .LEHB3-.LFB2202
	.uleb128 .LEHE3-.LEHB3
	.uleb128 .L22-.LFB2202
	.uleb128 0
	.uleb128 .LEHB4-.LFB2202
	.uleb128 .LEHE4-.LEHB4
	.uleb128 0
	.uleb128 0
.LLSDACSE2202:
	.text
	.size	_ZN4slay6engine6actors5actor6colors3NewEv, .-_ZN4slay6engine6actors5actor6colors3NewEv
	.section	.rodata
	.align 8
.LC1:
	.string	"slay::engine.actors[].colors.Delete(): Illegal deletion of NULL Color\nParams: ID: %lld\n"
	.align 8
.LC2:
	.string	"slay::engine.actors[].colors.Delete(): Color does not exists\nParams: ID: %lld\n"
	.text
	.align 2
	.globl	_ZN4slay6engine6actors5actor6colors6DeleteEy
	.type	_ZN4slay6engine6actors5actor6colors6DeleteEy, @function
_ZN4slay6engine6actors5actor6colors6DeleteEy:
.LFB2203:
	.cfi_startproc
	pushq	%rbp
	.cfi_def_cfa_offset 16
	.cfi_offset 6, -16
	movq	%rsp, %rbp
	.cfi_def_cfa_register 6
	pushq	%rbx
	subq	$40, %rsp
	.cfi_offset 3, -24
	movq	%rdi, -40(%rbp)
	movq	%rsi, -48(%rbp)
	cmpq	$0, -48(%rbp)
	jne	.L25
	movq	-48(%rbp), %rax
	movq	%rax, %rsi
	leaq	.LC1(%rip), %rax
	movq	%rax, %rdi
	movl	$0, %eax
	call	printf@PLT
	movl	$1, %edi
	call	exit@PLT
.L25:
	movq	-40(%rbp), %rax
	addq	$16, %rax
	movq	%rax, %rdi
	call	_ZN3neo5arrayIPN4slay6engine6actors5actor6colors5colorEE6LengthEv
	cmpq	%rax, -48(%rbp)
	jnb	.L26
	movq	-40(%rbp), %rax
	leaq	16(%rax), %rdx
	movq	-48(%rbp), %rax
	movq	%rax, %rsi
	movq	%rdx, %rdi
	call	_ZN3neo5arrayIPN4slay6engine6actors5actor6colors5colorEEixEy
	movq	(%rax), %rax
	testq	%rax, %rax
	jne	.L27
.L26:
	movl	$1, %eax
	jmp	.L28
.L27:
	movl	$0, %eax
.L28:
	testb	%al, %al
	je	.L29
	movq	-48(%rbp), %rax
	movq	%rax, %rsi
	leaq	.LC2(%rip), %rax
	movq	%rax, %rdi
	movl	$0, %eax
	call	printf@PLT
	movl	$1, %edi
	call	exit@PLT
.L29:
	movq	-40(%rbp), %rax
	leaq	16(%rax), %rdx
	movq	-48(%rbp), %rax
	movq	%rax, %rsi
	movq	%rdx, %rdi
	call	_ZN3neo5arrayIPN4slay6engine6actors5actor6colors5colorEEixEy
	movq	(%rax), %rax
	testq	%rax, %rax
	je	.L30
	movl	$56, %esi
	movq	%rax, %rdi
	call	_ZdlPvm@PLT
.L30:
	movq	-40(%rbp), %rax
	leaq	16(%rax), %rdx
	movq	-48(%rbp), %rax
	movq	%rax, %rsi
	movq	%rdx, %rdi
	call	_ZN3neo5arrayIPN4slay6engine6actors5actor6colors5colorEEixEy
	movq	$0, (%rax)
	movq	-40(%rbp), %rax
	addq	$16, %rax
	movq	%rax, %rdi
	call	_ZN3neo5arrayIPN4slay6engine6actors5actor6colors5colorEE6LengthEv
	subq	$1, %rax
	cmpq	%rax, -48(%rbp)
	sete	%al
	testb	%al, %al
	je	.L31
	movq	-40(%rbp), %rax
	addq	$16, %rax
	movq	%rax, %rdi
	call	_ZN3neo5arrayIPN4slay6engine6actors5actor6colors5colorEE6LengthEv
	subq	$1, %rax
	movq	%rax, -24(%rbp)
	jmp	.L32
.L35:
	movq	-40(%rbp), %rax
	leaq	16(%rax), %rdx
	movq	-24(%rbp), %rax
	movq	%rax, %rsi
	movq	%rdx, %rdi
	call	_ZN3neo5arrayIPN4slay6engine6actors5actor6colors5colorEEixEy
	movq	(%rax), %rax
	testq	%rax, %rax
	setne	%al
	testb	%al, %al
	jne	.L37
	subq	$1, -24(%rbp)
.L32:
	cmpq	$0, -24(%rbp)
	jne	.L35
	jmp	.L34
.L37:
	nop
.L34:
	addq	$1, -24(%rbp)
	movq	-40(%rbp), %rax
	leaq	16(%rax), %rbx
	movq	-40(%rbp), %rax
	addq	$16, %rax
	movq	%rax, %rdi
	call	_ZN3neo5arrayIPN4slay6engine6actors5actor6colors5colorEE6LengthEv
	subq	-24(%rbp), %rax
	movq	%rax, %rdx
	movq	-24(%rbp), %rax
	movq	%rax, %rsi
	movq	%rbx, %rdi
	call	_ZN3neo5arrayIPN4slay6engine6actors5actor6colors5colorEE6RemoveEyy
.L31:
	movl	$0, %eax
	movq	-8(%rbp), %rbx
	leave
	.cfi_def_cfa 7, 8
	ret
	.cfi_endproc
.LFE2203:
	.size	_ZN4slay6engine6actors5actor6colors6DeleteEy, .-_ZN4slay6engine6actors5actor6colors6DeleteEy
	.section	.rodata
	.align 8
.LC3:
	.string	"slay::engine.actors[].colors[]: Illegal access to NULL Color\nParams: ID: %lld\n"
	.align 8
.LC4:
	.string	"slay::engine.actors[].colors[]: Color does not exists\nParams: ID: %lld\n"
	.text
	.align 2
	.globl	_ZN4slay6engine6actors5actor6colorsixEy
	.type	_ZN4slay6engine6actors5actor6colorsixEy, @function
_ZN4slay6engine6actors5actor6colorsixEy:
.LFB2204:
	.cfi_startproc
	pushq	%rbp
	.cfi_def_cfa_offset 16
	.cfi_offset 6, -16
	movq	%rsp, %rbp
	.cfi_def_cfa_register 6
	subq	$16, %rsp
	movq	%rdi, -8(%rbp)
	movq	%rsi, -16(%rbp)
	cmpq	$0, -16(%rbp)
	jne	.L39
	movq	-16(%rbp), %rax
	movq	%rax, %rsi
	leaq	.LC3(%rip), %rax
	movq	%rax, %rdi
	movl	$0, %eax
	call	printf@PLT
	movl	$1, %edi
	call	exit@PLT
.L39:
	movq	-8(%rbp), %rax
	addq	$16, %rax
	movq	%rax, %rdi
	call	_ZN3neo5arrayIPN4slay6engine6actors5actor6colors5colorEE6LengthEv
	cmpq	%rax, -16(%rbp)
	jnb	.L40
	movq	-8(%rbp), %rax
	leaq	16(%rax), %rdx
	movq	-16(%rbp), %rax
	movq	%rax, %rsi
	movq	%rdx, %rdi
	call	_ZN3neo5arrayIPN4slay6engine6actors5actor6colors5colorEEixEy
	movq	(%rax), %rax
	testq	%rax, %rax
	jne	.L41
.L40:
	movl	$1, %eax
	jmp	.L42
.L41:
	movl	$0, %eax
.L42:
	testb	%al, %al
	je	.L43
	movq	-16(%rbp), %rax
	movq	%rax, %rsi
	leaq	.LC4(%rip), %rax
	movq	%rax, %rdi
	movl	$0, %eax
	call	printf@PLT
	movl	$1, %edi
	call	exit@PLT
.L43:
	movq	-8(%rbp), %rax
	leaq	16(%rax), %rdx
	movq	-16(%rbp), %rax
	movq	%rax, %rsi
	movq	%rdx, %rdi
	call	_ZN3neo5arrayIPN4slay6engine6actors5actor6colors5colorEEixEy
	movq	(%rax), %rax
	leave
	.cfi_def_cfa 7, 8
	ret
	.cfi_endproc
.LFE2204:
	.size	_ZN4slay6engine6actors5actor6colorsixEy, .-_ZN4slay6engine6actors5actor6colorsixEy
	.align 2
	.globl	_ZN4slay6engine6actors5actor6colors5colorC2ERS0_RS2_
	.type	_ZN4slay6engine6actors5actor6colors5colorC2ERS0_RS2_, @function
_ZN4slay6engine6actors5actor6colors5colorC2ERS0_RS2_:
.LFB2206:
	.cfi_startproc
	pushq	%rbp
	.cfi_def_cfa_offset 16
	.cfi_offset 6, -16
	movq	%rsp, %rbp
	.cfi_def_cfa_register 6
	movq	%rdi, -8(%rbp)
	movq	%rsi, -16(%rbp)
	movq	%rdx, -24(%rbp)
	movq	-8(%rbp), %rax
	movq	-16(%rbp), %rdx
	movq	%rdx, (%rax)
	movq	-8(%rbp), %rax
	movq	-24(%rbp), %rdx
	movq	%rdx, 8(%rax)
	movq	-8(%rbp), %rax
	movb	$0, 16(%rax)
	movq	-8(%rbp), %rax
	movw	$0, 18(%rax)
	movq	-8(%rbp), %rax
	movw	$0, 20(%rax)
	movq	-8(%rbp), %rax
	movb	$-1, 22(%rax)
	movq	-8(%rbp), %rax
	movb	$-1, 23(%rax)
	movq	-8(%rbp), %rax
	movb	$-1, 24(%rax)
	movq	-8(%rbp), %rax
	movb	$-1, 25(%rax)
	movq	-8(%rbp), %rax
	movb	$-128, 26(%rax)
	movq	-8(%rbp), %rax
	movb	$1, 27(%rax)
	movq	-8(%rbp), %rax
	movl	$0, 28(%rax)
	movq	-8(%rbp), %rax
	movl	$0, 32(%rax)
	movq	-8(%rbp), %rax
	pxor	%xmm0, %xmm0
	movsd	%xmm0, 40(%rax)
	movq	-8(%rbp), %rax
	pxor	%xmm0, %xmm0
	movsd	%xmm0, 48(%rax)
	nop
	popq	%rbp
	.cfi_def_cfa 7, 8
	ret
	.cfi_endproc
.LFE2206:
	.size	_ZN4slay6engine6actors5actor6colors5colorC2ERS0_RS2_, .-_ZN4slay6engine6actors5actor6colors5colorC2ERS0_RS2_
	.globl	_ZN4slay6engine6actors5actor6colors5colorC1ERS0_RS2_
	.set	_ZN4slay6engine6actors5actor6colors5colorC1ERS0_RS2_,_ZN4slay6engine6actors5actor6colors5colorC2ERS0_RS2_
	.align 2
	.globl	_ZN4slay6engine6actors5actor6colors5color10GetOffsetXEv
	.type	_ZN4slay6engine6actors5actor6colors5color10GetOffsetXEv, @function
_ZN4slay6engine6actors5actor6colors5color10GetOffsetXEv:
.LFB2208:
	.cfi_startproc
	pushq	%rbp
	.cfi_def_cfa_offset 16
	.cfi_offset 6, -16
	movq	%rsp, %rbp
	.cfi_def_cfa_register 6
	movq	%rdi, -8(%rbp)
	movq	-8(%rbp), %rax
	movl	28(%rax), %eax
	popq	%rbp
	.cfi_def_cfa 7, 8
	ret
	.cfi_endproc
.LFE2208:
	.size	_ZN4slay6engine6actors5actor6colors5color10GetOffsetXEv, .-_ZN4slay6engine6actors5actor6colors5color10GetOffsetXEv
	.align 2
	.globl	_ZN4slay6engine6actors5actor6colors5color10SetOffsetXEi
	.type	_ZN4slay6engine6actors5actor6colors5color10SetOffsetXEi, @function
_ZN4slay6engine6actors5actor6colors5color10SetOffsetXEi:
.LFB2209:
	.cfi_startproc
	pushq	%rbp
	.cfi_def_cfa_offset 16
	.cfi_offset 6, -16
	movq	%rsp, %rbp
	.cfi_def_cfa_register 6
	subq	$32, %rsp
	movq	%rdi, -24(%rbp)
	movl	%esi, -28(%rbp)
	movq	-24(%rbp), %rax
	movq	8(%rax), %rax
	movsd	120(%rax), %xmm1
	pxor	%xmm0, %xmm0
	cvtsi2sdl	-28(%rbp), %xmm0
	addsd	%xmm1, %xmm0
	cvttsd2sil	%xmm0, %eax
	movl	%eax, -8(%rbp)
	movq	-24(%rbp), %rax
	movq	8(%rax), %rax
	movsd	128(%rax), %xmm1
	movq	-24(%rbp), %rax
	movl	32(%rax), %eax
	pxor	%xmm0, %xmm0
	cvtsi2sdl	%eax, %xmm0
	addsd	%xmm1, %xmm0
	cvttsd2sil	%xmm0, %eax
	movl	%eax, -4(%rbp)
	movq	-24(%rbp), %rax
	movq	(%rax), %rax
	leaq	544(%rax), %rdx
	pxor	%xmm2, %xmm2
	cvtsi2sdl	-4(%rbp), %xmm2
	pxor	%xmm1, %xmm1
	cvtsi2sdl	-8(%rbp), %xmm1
	movq	-24(%rbp), %rax
	movq	8(%rax), %rax
	movsd	128(%rax), %xmm0
	movq	-24(%rbp), %rax
	movq	8(%rax), %rax
	movq	120(%rax), %rax
	movapd	%xmm2, %xmm3
	movapd	%xmm1, %xmm2
	movapd	%xmm0, %xmm1
	movq	%rax, %xmm0
	movq	%rdx, %rdi
	call	_ZN4slay6engine6vector6LengthEdddd@PLT
	movq	%xmm0, %rax
	movq	-24(%rbp), %rdx
	movq	%rax, 40(%rdx)
	movq	-24(%rbp), %rax
	movq	(%rax), %rax
	leaq	544(%rax), %rdx
	pxor	%xmm2, %xmm2
	cvtsi2sdl	-4(%rbp), %xmm2
	pxor	%xmm1, %xmm1
	cvtsi2sdl	-8(%rbp), %xmm1
	movq	-24(%rbp), %rax
	movq	8(%rax), %rax
	movsd	128(%rax), %xmm0
	movq	-24(%rbp), %rax
	movq	8(%rax), %rax
	movq	120(%rax), %rax
	movapd	%xmm2, %xmm3
	movapd	%xmm1, %xmm2
	movapd	%xmm0, %xmm1
	movq	%rax, %xmm0
	movq	%rdx, %rdi
	call	_ZN4slay6engine6vector5AngleEdddd@PLT
	movq	%xmm0, %rax
	movq	-24(%rbp), %rdx
	movq	%rax, 48(%rdx)
	movq	-24(%rbp), %rax
	movl	-28(%rbp), %edx
	movl	%edx, 28(%rax)
	movq	-24(%rbp), %rax
	movl	28(%rax), %eax
	leave
	.cfi_def_cfa 7, 8
	ret
	.cfi_endproc
.LFE2209:
	.size	_ZN4slay6engine6actors5actor6colors5color10SetOffsetXEi, .-_ZN4slay6engine6actors5actor6colors5color10SetOffsetXEi
	.align 2
	.globl	_ZN4slay6engine6actors5actor6colors5color10GetOffsetYEv
	.type	_ZN4slay6engine6actors5actor6colors5color10GetOffsetYEv, @function
_ZN4slay6engine6actors5actor6colors5color10GetOffsetYEv:
.LFB2210:
	.cfi_startproc
	pushq	%rbp
	.cfi_def_cfa_offset 16
	.cfi_offset 6, -16
	movq	%rsp, %rbp
	.cfi_def_cfa_register 6
	movq	%rdi, -8(%rbp)
	movq	-8(%rbp), %rax
	movl	32(%rax), %eax
	popq	%rbp
	.cfi_def_cfa 7, 8
	ret
	.cfi_endproc
.LFE2210:
	.size	_ZN4slay6engine6actors5actor6colors5color10GetOffsetYEv, .-_ZN4slay6engine6actors5actor6colors5color10GetOffsetYEv
	.align 2
	.globl	_ZN4slay6engine6actors5actor6colors5color10SetOffsetYEi
	.type	_ZN4slay6engine6actors5actor6colors5color10SetOffsetYEi, @function
_ZN4slay6engine6actors5actor6colors5color10SetOffsetYEi:
.LFB2211:
	.cfi_startproc
	pushq	%rbp
	.cfi_def_cfa_offset 16
	.cfi_offset 6, -16
	movq	%rsp, %rbp
	.cfi_def_cfa_register 6
	subq	$32, %rsp
	movq	%rdi, -24(%rbp)
	movl	%esi, -28(%rbp)
	movq	-24(%rbp), %rax
	movq	8(%rax), %rax
	movsd	120(%rax), %xmm1
	movq	-24(%rbp), %rax
	movl	28(%rax), %eax
	pxor	%xmm0, %xmm0
	cvtsi2sdl	%eax, %xmm0
	addsd	%xmm1, %xmm0
	cvttsd2sil	%xmm0, %eax
	movl	%eax, -8(%rbp)
	movq	-24(%rbp), %rax
	movq	8(%rax), %rax
	movsd	128(%rax), %xmm1
	pxor	%xmm0, %xmm0
	cvtsi2sdl	-28(%rbp), %xmm0
	addsd	%xmm1, %xmm0
	cvttsd2sil	%xmm0, %eax
	movl	%eax, -4(%rbp)
	movq	-24(%rbp), %rax
	movq	(%rax), %rax
	leaq	544(%rax), %rdx
	pxor	%xmm2, %xmm2
	cvtsi2sdl	-4(%rbp), %xmm2
	pxor	%xmm1, %xmm1
	cvtsi2sdl	-8(%rbp), %xmm1
	movq	-24(%rbp), %rax
	movq	8(%rax), %rax
	movsd	128(%rax), %xmm0
	movq	-24(%rbp), %rax
	movq	8(%rax), %rax
	movq	120(%rax), %rax
	movapd	%xmm2, %xmm3
	movapd	%xmm1, %xmm2
	movapd	%xmm0, %xmm1
	movq	%rax, %xmm0
	movq	%rdx, %rdi
	call	_ZN4slay6engine6vector6LengthEdddd@PLT
	movq	%xmm0, %rax
	movq	-24(%rbp), %rdx
	movq	%rax, 40(%rdx)
	movq	-24(%rbp), %rax
	movq	(%rax), %rax
	leaq	544(%rax), %rdx
	pxor	%xmm2, %xmm2
	cvtsi2sdl	-4(%rbp), %xmm2
	pxor	%xmm1, %xmm1
	cvtsi2sdl	-8(%rbp), %xmm1
	movq	-24(%rbp), %rax
	movq	8(%rax), %rax
	movsd	128(%rax), %xmm0
	movq	-24(%rbp), %rax
	movq	8(%rax), %rax
	movq	120(%rax), %rax
	movapd	%xmm2, %xmm3
	movapd	%xmm1, %xmm2
	movapd	%xmm0, %xmm1
	movq	%rax, %xmm0
	movq	%rdx, %rdi
	call	_ZN4slay6engine6vector5AngleEdddd@PLT
	movq	%xmm0, %rax
	movq	-24(%rbp), %rdx
	movq	%rax, 48(%rdx)
	movq	-24(%rbp), %rax
	movl	-28(%rbp), %edx
	movl	%edx, 32(%rax)
	movq	-24(%rbp), %rax
	movl	32(%rax), %eax
	leave
	.cfi_def_cfa 7, 8
	ret
	.cfi_endproc
.LFE2211:
	.size	_ZN4slay6engine6actors5actor6colors5color10SetOffsetYEi, .-_ZN4slay6engine6actors5actor6colors5color10SetOffsetYEi
	.section	.text._ZNKSt16initializer_listIPN4slay6engine6actors5actor6colors5colorEE4sizeEv,"axG",@progbits,_ZNKSt16initializer_listIPN4slay6engine6actors5actor6colors5colorEE4sizeEv,comdat
	.align 2
	.weak	_ZNKSt16initializer_listIPN4slay6engine6actors5actor6colors5colorEE4sizeEv
	.type	_ZNKSt16initializer_listIPN4slay6engine6actors5actor6colors5colorEE4sizeEv, @function
_ZNKSt16initializer_listIPN4slay6engine6actors5actor6colors5colorEE4sizeEv:
.LFB2277:
	.cfi_startproc
	pushq	%rbp
	.cfi_def_cfa_offset 16
	.cfi_offset 6, -16
	movq	%rsp, %rbp
	.cfi_def_cfa_register 6
	movq	%rdi, -8(%rbp)
	movq	-8(%rbp), %rax
	movq	8(%rax), %rax
	popq	%rbp
	.cfi_def_cfa 7, 8
	ret
	.cfi_endproc
.LFE2277:
	.size	_ZNKSt16initializer_listIPN4slay6engine6actors5actor6colors5colorEE4sizeEv, .-_ZNKSt16initializer_listIPN4slay6engine6actors5actor6colors5colorEE4sizeEv
	.section	.rodata
	.align 8
.LC6:
	.string	"neo::array(): Memory allocation failed\nParams: Elements(size, length): %ld, %ld\n"
	.section	.text._ZN3neo5arrayIPN4slay6engine6actors5actor6colors5colorEEC2ESt16initializer_listIS7_E,"axG",@progbits,_ZN3neo5arrayIPN4slay6engine6actors5actor6colors5colorEEC5ESt16initializer_listIS7_E,comdat
	.align 2
	.weak	_ZN3neo5arrayIPN4slay6engine6actors5actor6colors5colorEEC2ESt16initializer_listIS7_E
	.type	_ZN3neo5arrayIPN4slay6engine6actors5actor6colors5colorEEC2ESt16initializer_listIS7_E, @function
_ZN3neo5arrayIPN4slay6engine6actors5actor6colors5colorEEC2ESt16initializer_listIS7_E:
.LFB2278:
	.cfi_startproc
	pushq	%rbp
	.cfi_def_cfa_offset 16
	.cfi_offset 6, -16
	movq	%rsp, %rbp
	.cfi_def_cfa_register 6
	pushq	%r12
	pushq	%rbx
	subq	$32, %rsp
	.cfi_offset 12, -24
	.cfi_offset 3, -32
	movq	%rdi, -24(%rbp)
	movq	%rdx, %rcx
	movq	%rsi, %rax
	movq	%rdi, %rdx
	movq	%rcx, %rdx
	movq	%rax, -48(%rbp)
	movq	%rdx, -40(%rbp)
	leaq	-48(%rbp), %rax
	movq	%rax, %rdi
	call	_ZNKSt16initializer_listIPN4slay6engine6actors5actor6colors5colorEE4sizeEv
	movq	-24(%rbp), %rdx
	movq	%rax, (%rdx)
	movq	-24(%rbp), %rax
	movq	(%rax), %rax
	testq	%rax, %rax
	sete	%al
	testb	%al, %al
	je	.L57
	movq	-24(%rbp), %rax
	movq	$0, 8(%rax)
	jmp	.L60
.L57:
	movq	-24(%rbp), %rax
	movq	(%rax), %rax
	salq	$3, %rax
	movq	%rax, %rdi
	call	malloc@PLT
	movq	%rax, %rdx
	movq	-24(%rbp), %rax
	movq	%rdx, 8(%rax)
	movq	-24(%rbp), %rax
	movq	8(%rax), %rax
	testq	%rax, %rax
	sete	%al
	testb	%al, %al
	je	.L59
	leaq	-48(%rbp), %rax
	movq	%rax, %rdi
	call	_ZNKSt16initializer_listIPN4slay6engine6actors5actor6colors5colorEE4sizeEv
	movq	%rax, %rdx
	movl	$8, %esi
	leaq	.LC6(%rip), %rax
	movq	%rax, %rdi
	movl	$0, %eax
	call	printf@PLT
	movl	$1, %edi
	call	exit@PLT
.L59:
	movq	-24(%rbp), %rax
	movq	(%rax), %rax
	leaq	0(,%rax,8), %r12
	movq	-24(%rbp), %rax
	movq	8(%rax), %rbx
	leaq	-48(%rbp), %rax
	movq	%rax, %rdi
	call	_ZNKSt16initializer_listIPN4slay6engine6actors5actor6colors5colorEE5beginEv
	movq	%r12, %rdx
	movq	%rbx, %rsi
	movq	%rax, %rdi
	call	_ZN3neo9memCopyToEPKvPvy@PLT
.L60:
	nop
	addq	$32, %rsp
	popq	%rbx
	popq	%r12
	popq	%rbp
	.cfi_def_cfa 7, 8
	ret
	.cfi_endproc
.LFE2278:
	.size	_ZN3neo5arrayIPN4slay6engine6actors5actor6colors5colorEEC2ESt16initializer_listIS7_E, .-_ZN3neo5arrayIPN4slay6engine6actors5actor6colors5colorEEC2ESt16initializer_listIS7_E
	.weak	_ZN3neo5arrayIPN4slay6engine6actors5actor6colors5colorEEC1ESt16initializer_listIS7_E
	.set	_ZN3neo5arrayIPN4slay6engine6actors5actor6colors5colorEEC1ESt16initializer_listIS7_E,_ZN3neo5arrayIPN4slay6engine6actors5actor6colors5colorEEC2ESt16initializer_listIS7_E
	.section	.text._ZN3neo5arrayIPN4slay6engine6actors5actor6colors5colorEED2Ev,"axG",@progbits,_ZN3neo5arrayIPN4slay6engine6actors5actor6colors5colorEED5Ev,comdat
	.align 2
	.weak	_ZN3neo5arrayIPN4slay6engine6actors5actor6colors5colorEED2Ev
	.type	_ZN3neo5arrayIPN4slay6engine6actors5actor6colors5colorEED2Ev, @function
_ZN3neo5arrayIPN4slay6engine6actors5actor6colors5colorEED2Ev:
.LFB2281:
	.cfi_startproc
	pushq	%rbp
	.cfi_def_cfa_offset 16
	.cfi_offset 6, -16
	movq	%rsp, %rbp
	.cfi_def_cfa_register 6
	subq	$32, %rsp
	movq	%rdi, -24(%rbp)
	movq	$0, -8(%rbp)
	jmp	.L62
.L63:
	addq	$1, -8(%rbp)
.L62:
	movq	-24(%rbp), %rax
	movq	(%rax), %rax
	cmpq	%rax, -8(%rbp)
	jb	.L63
	movq	-24(%rbp), %rax
	movq	8(%rax), %rax
	movq	%rax, %rdi
	call	free@PLT
	nop
	leave
	.cfi_def_cfa 7, 8
	ret
	.cfi_endproc
.LFE2281:
	.size	_ZN3neo5arrayIPN4slay6engine6actors5actor6colors5colorEED2Ev, .-_ZN3neo5arrayIPN4slay6engine6actors5actor6colors5colorEED2Ev
	.weak	_ZN3neo5arrayIPN4slay6engine6actors5actor6colors5colorEED1Ev
	.set	_ZN3neo5arrayIPN4slay6engine6actors5actor6colors5colorEED1Ev,_ZN3neo5arrayIPN4slay6engine6actors5actor6colors5colorEED2Ev
	.section	.text._ZN3neo5arrayIPN4slay6engine6actors5actor6colors5colorEE6LengthEv,"axG",@progbits,_ZN3neo5arrayIPN4slay6engine6actors5actor6colors5colorEE6LengthEv,comdat
	.align 2
	.weak	_ZN3neo5arrayIPN4slay6engine6actors5actor6colors5colorEE6LengthEv
	.type	_ZN3neo5arrayIPN4slay6engine6actors5actor6colors5colorEE6LengthEv, @function
_ZN3neo5arrayIPN4slay6engine6actors5actor6colors5colorEE6LengthEv:
.LFB2283:
	.cfi_startproc
	pushq	%rbp
	.cfi_def_cfa_offset 16
	.cfi_offset 6, -16
	movq	%rsp, %rbp
	.cfi_def_cfa_register 6
	movq	%rdi, -8(%rbp)
	movq	-8(%rbp), %rax
	movq	(%rax), %rax
	popq	%rbp
	.cfi_def_cfa 7, 8
	ret
	.cfi_endproc
.LFE2283:
	.size	_ZN3neo5arrayIPN4slay6engine6actors5actor6colors5colorEE6LengthEv, .-_ZN3neo5arrayIPN4slay6engine6actors5actor6colors5colorEE6LengthEv
	.section	.rodata
	.align 8
.LC7:
	.string	"neo::array[]: Index out of range\nParams: Index: %lld\n"
	.section	.text._ZN3neo5arrayIPN4slay6engine6actors5actor6colors5colorEEixEy,"axG",@progbits,_ZN3neo5arrayIPN4slay6engine6actors5actor6colors5colorEEixEy,comdat
	.align 2
	.weak	_ZN3neo5arrayIPN4slay6engine6actors5actor6colors5colorEEixEy
	.type	_ZN3neo5arrayIPN4slay6engine6actors5actor6colors5colorEEixEy, @function
_ZN3neo5arrayIPN4slay6engine6actors5actor6colors5colorEEixEy:
.LFB2284:
	.cfi_startproc
	pushq	%rbp
	.cfi_def_cfa_offset 16
	.cfi_offset 6, -16
	movq	%rsp, %rbp
	.cfi_def_cfa_register 6
	subq	$16, %rsp
	movq	%rdi, -8(%rbp)
	movq	%rsi, -16(%rbp)
	movq	-8(%rbp), %rax
	movq	(%rax), %rax
	cmpq	%rax, -16(%rbp)
	jb	.L67
	movq	-16(%rbp), %rax
	movq	%rax, %rsi
	leaq	.LC7(%rip), %rax
	movq	%rax, %rdi
	movl	$0, %eax
	call	printf@PLT
	movl	$1, %edi
	call	exit@PLT
.L67:
	movq	-8(%rbp), %rax
	movq	8(%rax), %rax
	movq	-16(%rbp), %rdx
	salq	$3, %rdx
	addq	%rdx, %rax
	leave
	.cfi_def_cfa 7, 8
	ret
	.cfi_endproc
.LFE2284:
	.size	_ZN3neo5arrayIPN4slay6engine6actors5actor6colors5colorEEixEy, .-_ZN3neo5arrayIPN4slay6engine6actors5actor6colors5colorEEixEy
	.section	.rodata
	.align 8
.LC8:
	.string	"neo::array+=: Memory allocation failed\nParams: Elements(type, length): %ld, %ld\n"
	.section	.text._ZN3neo5arrayIPN4slay6engine6actors5actor6colors5colorEEpLESt16initializer_listIS7_E,"axG",@progbits,_ZN3neo5arrayIPN4slay6engine6actors5actor6colors5colorEEpLESt16initializer_listIS7_E,comdat
	.align 2
	.weak	_ZN3neo5arrayIPN4slay6engine6actors5actor6colors5colorEEpLESt16initializer_listIS7_E
	.type	_ZN3neo5arrayIPN4slay6engine6actors5actor6colors5colorEEpLESt16initializer_listIS7_E, @function
_ZN3neo5arrayIPN4slay6engine6actors5actor6colors5colorEEpLESt16initializer_listIS7_E:
.LFB2285:
	.cfi_startproc
	pushq	%rbp
	.cfi_def_cfa_offset 16
	.cfi_offset 6, -16
	movq	%rsp, %rbp
	.cfi_def_cfa_register 6
	pushq	%r13
	pushq	%r12
	pushq	%rbx
	subq	$40, %rsp
	.cfi_offset 13, -24
	.cfi_offset 12, -32
	.cfi_offset 3, -40
	movq	%rdi, -40(%rbp)
	movq	%rdx, %rcx
	movq	%rsi, %rax
	movq	%rdi, %rdx
	movq	%rcx, %rdx
	movq	%rax, -64(%rbp)
	movq	%rdx, -56(%rbp)
	leaq	-64(%rbp), %rax
	movq	%rax, %rdi
	call	_ZNKSt16initializer_listIPN4slay6engine6actors5actor6colors5colorEE4sizeEv
	testq	%rax, %rax
	setne	%al
	testb	%al, %al
	je	.L70
	leaq	-64(%rbp), %rax
	movq	%rax, %rdi
	call	_ZNKSt16initializer_listIPN4slay6engine6actors5actor6colors5colorEE4sizeEv
	movq	-40(%rbp), %rdx
	movq	(%rdx), %rdx
	addq	%rax, %rdx
	movq	-40(%rbp), %rax
	movq	%rdx, (%rax)
	movq	-40(%rbp), %rax
	movq	(%rax), %rax
	leaq	0(,%rax,8), %rdx
	movq	-40(%rbp), %rax
	movq	8(%rax), %rax
	movq	%rdx, %rsi
	movq	%rax, %rdi
	call	realloc@PLT
	movq	-40(%rbp), %rdx
	movq	%rax, 8(%rdx)
	movq	-40(%rbp), %rax
	movq	8(%rax), %rax
	testq	%rax, %rax
	sete	%al
	testb	%al, %al
	je	.L71
	leaq	-64(%rbp), %rax
	movq	%rax, %rdi
	call	_ZNKSt16initializer_listIPN4slay6engine6actors5actor6colors5colorEE4sizeEv
	movq	%rax, %rdx
	movl	$8, %esi
	leaq	.LC8(%rip), %rax
	movq	%rax, %rdi
	movl	$0, %eax
	call	printf@PLT
	movl	$1, %edi
	call	exit@PLT
.L71:
	leaq	-64(%rbp), %rax
	movq	%rax, %rdi
	call	_ZNKSt16initializer_listIPN4slay6engine6actors5actor6colors5colorEE4sizeEv
	leaq	0(,%rax,8), %r12
	movq	-40(%rbp), %rax
	movq	8(%rax), %rbx
	movq	-40(%rbp), %rax
	movq	(%rax), %r13
	leaq	-64(%rbp), %rax
	movq	%rax, %rdi
	call	_ZNKSt16initializer_listIPN4slay6engine6actors5actor6colors5colorEE4sizeEv
	movq	%r13, %rdx
	subq	%rax, %rdx
	leaq	0(,%rdx,8), %rax
	addq	%rax, %rbx
	leaq	-64(%rbp), %rax
	movq	%rax, %rdi
	call	_ZNKSt16initializer_listIPN4slay6engine6actors5actor6colors5colorEE5beginEv
	movq	%r12, %rdx
	movq	%rbx, %rsi
	movq	%rax, %rdi
	call	_ZN3neo9memCopyToEPKvPvy@PLT
.L70:
	movq	-40(%rbp), %rax
	addq	$40, %rsp
	popq	%rbx
	popq	%r12
	popq	%r13
	popq	%rbp
	.cfi_def_cfa 7, 8
	ret
	.cfi_endproc
.LFE2285:
	.size	_ZN3neo5arrayIPN4slay6engine6actors5actor6colors5colorEEpLESt16initializer_listIS7_E, .-_ZN3neo5arrayIPN4slay6engine6actors5actor6colors5colorEEpLESt16initializer_listIS7_E
	.section	.rodata
	.align 8
.LC9:
	.string	"neo::array.Remove(): Index out of range\nParams: Index: %lld, Length: %lld\n"
	.align 8
.LC10:
	.string	"neo::array.Remove(): Length out of range\nParams: Index: %lld, Length: %lld\n"
	.align 8
.LC11:
	.string	"neo::array.Remove(): Memory allocation failed\nParams: Index: %lld, Length: %lld\n"
	.section	.text._ZN3neo5arrayIPN4slay6engine6actors5actor6colors5colorEE6RemoveEyy,"axG",@progbits,_ZN3neo5arrayIPN4slay6engine6actors5actor6colors5colorEE6RemoveEyy,comdat
	.align 2
	.weak	_ZN3neo5arrayIPN4slay6engine6actors5actor6colors5colorEE6RemoveEyy
	.type	_ZN3neo5arrayIPN4slay6engine6actors5actor6colors5colorEE6RemoveEyy, @function
_ZN3neo5arrayIPN4slay6engine6actors5actor6colors5colorEE6RemoveEyy:
.LFB2286:
	.cfi_startproc
	pushq	%rbp
	.cfi_def_cfa_offset 16
	.cfi_offset 6, -16
	movq	%rsp, %rbp
	.cfi_def_cfa_register 6
	subq	$48, %rsp
	movq	%rdi, -24(%rbp)
	movq	%rsi, -32(%rbp)
	movq	%rdx, -40(%rbp)
	movq	-24(%rbp), %rax
	movq	(%rax), %rax
	cmpq	%rax, -32(%rbp)
	jb	.L74
	movq	-40(%rbp), %rdx
	movq	-32(%rbp), %rax
	movq	%rax, %rsi
	leaq	.LC9(%rip), %rax
	movq	%rax, %rdi
	movl	$0, %eax
	call	printf@PLT
	movl	$1, %edi
	call	exit@PLT
.L74:
	movq	-24(%rbp), %rax
	movq	(%rax), %rdx
	movq	-32(%rbp), %rcx
	movq	-40(%rbp), %rax
	addq	%rcx, %rax
	cmpq	%rax, %rdx
	jnb	.L75
	movq	-40(%rbp), %rdx
	movq	-32(%rbp), %rax
	movq	%rax, %rsi
	leaq	.LC10(%rip), %rax
	movq	%rax, %rdi
	movl	$0, %eax
	call	printf@PLT
	movl	$1, %edi
	call	exit@PLT
.L75:
	cmpq	$0, -40(%rbp)
	je	.L76
	movq	-32(%rbp), %rax
	movq	%rax, -16(%rbp)
	jmp	.L77
.L78:
	addq	$1, -16(%rbp)
.L77:
	movq	-32(%rbp), %rdx
	movq	-40(%rbp), %rax
	addq	%rdx, %rax
	cmpq	%rax, -16(%rbp)
	jb	.L78
	movq	-24(%rbp), %rax
	movq	(%rax), %rax
	subq	-40(%rbp), %rax
	movq	%rax, %rdx
	movq	-24(%rbp), %rax
	movq	%rdx, (%rax)
	movq	-24(%rbp), %rax
	movq	(%rax), %rax
	testq	%rax, %rax
	sete	%al
	testb	%al, %al
	je	.L79
	movq	-24(%rbp), %rax
	movq	8(%rax), %rax
	movq	%rax, %rdi
	call	free@PLT
	movq	-24(%rbp), %rax
	movq	$0, 8(%rax)
	jmp	.L76
.L79:
	movq	-32(%rbp), %rax
	movq	%rax, -8(%rbp)
	jmp	.L80
.L81:
	movq	-24(%rbp), %rax
	movq	8(%rax), %rax
	movq	-8(%rbp), %rcx
	movq	-40(%rbp), %rdx
	addq	%rcx, %rdx
	salq	$3, %rdx
	leaq	(%rax,%rdx), %rcx
	movq	-24(%rbp), %rax
	movq	8(%rax), %rax
	movq	-8(%rbp), %rdx
	salq	$3, %rdx
	addq	%rax, %rdx
	movq	(%rcx), %rax
	movq	%rax, (%rdx)
	addq	$1, -8(%rbp)
.L80:
	movq	-24(%rbp), %rax
	movq	(%rax), %rax
	cmpq	%rax, -8(%rbp)
	jb	.L81
	movq	-24(%rbp), %rax
	movq	(%rax), %rax
	leaq	0(,%rax,8), %rdx
	movq	-24(%rbp), %rax
	movq	8(%rax), %rax
	movq	%rdx, %rsi
	movq	%rax, %rdi
	call	realloc@PLT
	movq	-24(%rbp), %rdx
	movq	%rax, 8(%rdx)
	movq	-24(%rbp), %rax
	movq	8(%rax), %rax
	testq	%rax, %rax
	sete	%al
	testb	%al, %al
	je	.L76
	movq	-40(%rbp), %rdx
	movq	-32(%rbp), %rax
	movq	%rax, %rsi
	leaq	.LC11(%rip), %rax
	movq	%rax, %rdi
	movl	$0, %eax
	call	printf@PLT
	movl	$1, %edi
	call	exit@PLT
.L76:
	movq	-24(%rbp), %rax
	leave
	.cfi_def_cfa 7, 8
	ret
	.cfi_endproc
.LFE2286:
	.size	_ZN3neo5arrayIPN4slay6engine6actors5actor6colors5colorEE6RemoveEyy, .-_ZN3neo5arrayIPN4slay6engine6actors5actor6colors5colorEE6RemoveEyy
	.section	.text._ZNKSt16initializer_listIPN4slay6engine6actors5actor6colors5colorEE5beginEv,"axG",@progbits,_ZNKSt16initializer_listIPN4slay6engine6actors5actor6colors5colorEE5beginEv,comdat
	.align 2
	.weak	_ZNKSt16initializer_listIPN4slay6engine6actors5actor6colors5colorEE5beginEv
	.type	_ZNKSt16initializer_listIPN4slay6engine6actors5actor6colors5colorEE5beginEv, @function
_ZNKSt16initializer_listIPN4slay6engine6actors5actor6colors5colorEE5beginEv:
.LFB2337:
	.cfi_startproc
	pushq	%rbp
	.cfi_def_cfa_offset 16
	.cfi_offset 6, -16
	movq	%rsp, %rbp
	.cfi_def_cfa_register 6
	movq	%rdi, -8(%rbp)
	movq	-8(%rbp), %rax
	movq	(%rax), %rax
	popq	%rbp
	.cfi_def_cfa 7, 8
	ret
	.cfi_endproc
.LFE2337:
	.size	_ZNKSt16initializer_listIPN4slay6engine6actors5actor6colors5colorEE5beginEv, .-_ZNKSt16initializer_listIPN4slay6engine6actors5actor6colors5colorEE5beginEv
	.hidden	DW.ref.__gxx_personality_v0
	.weak	DW.ref.__gxx_personality_v0
	.section	.data.rel.local.DW.ref.__gxx_personality_v0,"awG",@progbits,DW.ref.__gxx_personality_v0,comdat
	.align 8
	.type	DW.ref.__gxx_personality_v0, @object
	.size	DW.ref.__gxx_personality_v0, 8
DW.ref.__gxx_personality_v0:
	.quad	__gxx_personality_v0
	.ident	"GCC: (GNU) 13.2.1 20230801"
	.section	.note.GNU-stack,"",@progbits
