	.file	"player.cpp"
	.text
	.align 2
	.p2align 4
	.globl	_ZN6playerC2EPN3wze6engineEP4gamedddd
	.type	_ZN6playerC2EPN3wze6engineEP4gamedddd, @function
_ZN6playerC2EPN3wze6engineEP4gamedddd:
.LFB8147:
	.cfi_startproc
	pushq	%r12
	.cfi_def_cfa_offset 16
	.cfi_offset 12, -16
	movl	$66, %r8d
	movl	$42, %ecx
	pushq	%rbp
	.cfi_def_cfa_offset 24
	.cfi_offset 6, -24
	pushq	%rbx
	.cfi_def_cfa_offset 32
	.cfi_offset 3, -32
	movq	%rdi, %rbx
	subq	$16, %rsp
	.cfi_def_cfa_offset 48
	movq	%rsi, (%rdi)
	movq	%rdx, 8(%rdi)
	leaq	240(%rsi), %rdi
	movl	$1, %edx
	movq	%rbx, %rsi
	movsd	%xmm3, 8(%rsp)
	call	_ZN3wze6engine6actors3NewEPvyddttd@PLT
	movl	$1, %esi
	movq	%rax, 16(%rbx)
	leaq	136(%rax), %rdi
	call	_ZN3wze6engine6actors5actor12overlapboxes3NewEy@PLT
	movl	$100, %esi
	movq	%rax, 24(%rbx)
	movq	8(%rbx), %rax
	leaq	48(%rax), %rdx
	movq	16(%rbx), %rax
	leaq	72(%rax), %rdi
	call	_ZN3wze6engine6actors5actor9flipbooks3NewEjPN3neo5arrayIyEE@PLT
	movl	$100, %esi
	movq	%rax, 32(%rbx)
	movq	8(%rbx), %rax
	leaq	64(%rax), %rdx
	movq	16(%rbx), %rax
	leaq	72(%rax), %rdi
	call	_ZN3wze6engine6actors5actor9flipbooks3NewEjPN3neo5arrayIyEE@PLT
	movl	$100, %esi
	movq	%rax, 40(%rbx)
	movq	8(%rbx), %rax
	leaq	32(%rax), %rdx
	movq	16(%rbx), %rax
	leaq	72(%rax), %rdi
	call	_ZN3wze6engine6actors5actor9flipbooks3NewEjPN3neo5arrayIyEE@PLT
	movq	%rax, 48(%rbx)
	movq	8(%rbx), %rax
	movzwl	82(%rax), %esi
	movq	16(%rbx), %rax
	leaq	40(%rax), %rdi
	call	_ZN3wze6engine6actors5actor8textures3NewEy@PLT
	movq	%rax, 56(%rbx)
	movq	8(%rbx), %rax
	movzwl	80(%rax), %esi
	movq	16(%rbx), %rax
	leaq	40(%rax), %rdi
	call	_ZN3wze6engine6actors5actor8textures3NewEy@PLT
	movsd	8(%rsp), %xmm3
	movq	16(%rbx), %rdi
	movq	%rax, 64(%rbx)
	cvttsd2sil	%xmm3, %esi
	movzbl	%sil, %esi
	call	_ZN3wze6engine6actors5actor17SetCollisionLayerEh@PLT
	movq	16(%rbx), %rdi
	movq	24(%rbx), %rbp
	movb	$1, 192(%rdi)
	call	_ZN3wze6engine6actors5actor8GetWidthEv@PLT
	pxor	%xmm0, %xmm0
	movq	%rbp, %rdi
	movzwl	%ax, %eax
	cvtsi2sdl	%eax, %xmm0
	addsd	.LC0(%rip), %xmm0
	cvttsd2sil	%xmm0, %esi
	movzwl	%si, %esi
	call	_ZN3wze6engine6actors5actor12overlapboxes10overlapbox8SetWidthEt@PLT
	movq	16(%rbx), %rdi
	movq	24(%rbx), %rbp
	call	_ZN3wze6engine6actors5actor9GetHeightEv@PLT
	pxor	%xmm0, %xmm0
	movq	%rbp, %rdi
	movzwl	%ax, %eax
	cvtsi2sdl	%eax, %xmm0
	addsd	.LC0(%rip), %xmm0
	cvttsd2sil	%xmm0, %esi
	movzwl	%si, %esi
	call	_ZN3wze6engine6actors5actor12overlapboxes10overlapbox9SetHeightEt@PLT
	movl	.LC1(%rip), %ebp
	movq	32(%rbx), %r12
	movq	16(%rbx), %rdi
	movl	%ebp, 16(%r12)
	call	_ZN3wze6engine6actors5actor4GetYEv@PLT
	addsd	.LC2(%rip), %xmm0
	movq	%r12, %rdi
	call	_ZN3wze6engine6actors5actor9flipbooks8flipbook4SetYEd@PLT
	movq	40(%rbx), %r12
	movq	16(%rbx), %rdi
	movl	%ebp, 16(%r12)
	call	_ZN3wze6engine6actors5actor4GetYEv@PLT
	addsd	.LC2(%rip), %xmm0
	movq	%r12, %rdi
	call	_ZN3wze6engine6actors5actor9flipbooks8flipbook4SetYEd@PLT
	movq	40(%rbx), %rax
	movq	48(%rbx), %r12
	movq	16(%rbx), %rdi
	movb	$1, 39(%rax)
	movb	$0, 37(%rax)
	movl	%ebp, 16(%r12)
	call	_ZN3wze6engine6actors5actor4GetYEv@PLT
	addsd	.LC2(%rip), %xmm0
	movq	%r12, %rdi
	call	_ZN3wze6engine6actors5actor9flipbooks8flipbook4SetYEd@PLT
	movq	48(%rbx), %rax
	movq	56(%rbx), %r12
	movq	16(%rbx), %rdi
	movb	$1, 39(%rax)
	movb	$0, 37(%rax)
	movl	%ebp, 16(%r12)
	call	_ZN3wze6engine6actors5actor4GetYEv@PLT
	addsd	.LC2(%rip), %xmm0
	movq	%r12, %rdi
	call	_ZN3wze6engine6actors5actor8textures7texture4SetYEd@PLT
	movq	64(%rbx), %r12
	movq	16(%rbx), %rdi
	movl	%ebp, 16(%r12)
	movb	$0, 37(%r12)
	call	_ZN3wze6engine6actors5actor4GetYEv@PLT
	addsd	.LC2(%rip), %xmm0
	movq	%r12, %rdi
	call	_ZN3wze6engine6actors5actor8textures7texture4SetYEd@PLT
	movq	32(%rbx), %rax
	movb	$0, 37(%rax)
	addq	$16, %rsp
	.cfi_def_cfa_offset 32
	popq	%rbx
	.cfi_def_cfa_offset 24
	popq	%rbp
	.cfi_def_cfa_offset 16
	popq	%r12
	.cfi_def_cfa_offset 8
	ret
	.cfi_endproc
.LFE8147:
	.size	_ZN6playerC2EPN3wze6engineEP4gamedddd, .-_ZN6playerC2EPN3wze6engineEP4gamedddd
	.globl	_ZN6playerC1EPN3wze6engineEP4gamedddd
	.set	_ZN6playerC1EPN3wze6engineEP4gamedddd,_ZN6playerC2EPN3wze6engineEP4gamedddd
	.align 2
	.p2align 4
	.globl	_ZN6player6UpdateEv
	.type	_ZN6player6UpdateEv, @function
_ZN6player6UpdateEv:
.LFB8149:
	.cfi_startproc
	pushq	%rbp
	.cfi_def_cfa_offset 16
	.cfi_offset 6, -16
	movl	$4, %esi
	pushq	%rbx
	.cfi_def_cfa_offset 24
	.cfi_offset 3, -24
	movq	%rdi, %rbx
	subq	$24, %rsp
	.cfi_def_cfa_offset 48
	movq	(%rdi), %rax
	leaq	160(%rax), %rdi
	call	_ZN3wze6engine4keysixENS_3keyE@PLT
	testb	%al, %al
	jne	.L16
.L6:
	movq	(%rbx), %rax
	movl	$7, %esi
	leaq	160(%rax), %rdi
	call	_ZN3wze6engine4keysixENS_3keyE@PLT
	testb	%al, %al
	jne	.L17
.L11:
	addq	$24, %rsp
	.cfi_remember_state
	.cfi_def_cfa_offset 24
	xorl	%eax, %eax
	popq	%rbx
	.cfi_def_cfa_offset 16
	popq	%rbp
	.cfi_def_cfa_offset 8
	ret
	.p2align 4,,10
	.p2align 3
.L16:
	.cfi_restore_state
	movq	(%rbx), %rax
	movl	$7, %esi
	leaq	160(%rax), %rdi
	call	_ZN3wze6engine4keysixENS_3keyE@PLT
	testb	%al, %al
	jne	.L6
	movq	16(%rbx), %rbp
	movq	%rbp, %rdi
	call	_ZN3wze6engine6actors5actor4GetXEv@PLT
	movq	(%rbx), %rax
	movsd	%xmm0, 8(%rsp)
	leaq	400(%rax), %rdi
	call	_ZN3wze6engine6timing12GetDeltaTimeEv@PLT
	pxor	%xmm0, %xmm0
	movq	%rbp, %rdi
	movl	%eax, %eax
	cvtsi2sdq	%rax, %xmm0
	mulsd	.LC3(%rip), %xmm0
	addsd	8(%rsp), %xmm0
	call	_ZN3wze6engine6actors5actor4SetXEd@PLT
	jmp	.L6
	.p2align 4,,10
	.p2align 3
.L17:
	movq	(%rbx), %rax
	movl	$4, %esi
	leaq	160(%rax), %rdi
	call	_ZN3wze6engine4keysixENS_3keyE@PLT
	testb	%al, %al
	jne	.L11
	movq	16(%rbx), %rbp
	movq	%rbp, %rdi
	call	_ZN3wze6engine6actors5actor4GetXEv@PLT
	movq	(%rbx), %rdi
	movsd	%xmm0, 8(%rsp)
	addq	$400, %rdi
	call	_ZN3wze6engine6timing12GetDeltaTimeEv@PLT
	pxor	%xmm0, %xmm0
	movq	%rbp, %rdi
	movl	%eax, %eax
	cvtsi2sdq	%rax, %xmm0
	mulsd	.LC4(%rip), %xmm0
	addsd	8(%rsp), %xmm0
	call	_ZN3wze6engine6actors5actor4SetXEd@PLT
	addq	$24, %rsp
	.cfi_def_cfa_offset 24
	xorl	%eax, %eax
	popq	%rbx
	.cfi_def_cfa_offset 16
	popq	%rbp
	.cfi_def_cfa_offset 8
	ret
	.cfi_endproc
.LFE8149:
	.size	_ZN6player6UpdateEv, .-_ZN6player6UpdateEv
	.section	.rodata.cst8,"aM",@progbits,8
	.align 8
.LC0:
	.long	-350469331
	.long	1059731170
	.section	.rodata.cst4,"aM",@progbits,4
	.align 4
.LC1:
	.value	83
	.value	80
	.section	.rodata.cst8
	.align 8
.LC2:
	.long	0
	.long	1076625408
	.align 8
.LC3:
	.long	0
	.long	-1075838976
	.align 8
.LC4:
	.long	0
	.long	1071644672
	.ident	"GCC: (GNU) 13.2.1 20230801"
	.section	.note.GNU-stack,"",@progbits
