	.file	"WZEOverlapBox(es).cpp"
	.text
	.section	.rodata.str1.8,"aMS",@progbits,1
	.align 8
.LC0:
	.string	"neo::array(): Memory allocation failed\nParams: Elements(size, length): %ld, %ld\n"
	.text
	.align 2
	.p2align 4
	.globl	_ZN3wze6engine6actors5actor12overlapboxesC2EPS0_PS2_
	.type	_ZN3wze6engine6actors5actor12overlapboxesC2EPS0_PS2_, @function
_ZN3wze6engine6actors5actor12overlapboxesC2EPS0_PS2_:
.LFB8145:
	.cfi_startproc
	pushq	%rbx
	.cfi_def_cfa_offset 16
	.cfi_offset 3, -16
	movq	%rdi, %rbx
	subq	$16, %rsp
	.cfi_def_cfa_offset 32
	movq	%fs:40, %rax
	movq	%rax, 8(%rsp)
	xorl	%eax, %eax
	movq	%rsi, (%rdi)
	movq	%rdx, 8(%rdi)
	movq	$1, 16(%rdi)
	movl	$8, %edi
	movq	$0, (%rsp)
	call	malloc@PLT
	movq	%rax, 24(%rbx)
	testq	%rax, %rax
	je	.L6
	movq	%rax, %rsi
	movq	%rsp, %rdi
	movl	$8, %edx
	call	_ZN3neo9memCopyToEPKvPvy@PLT
	movq	8(%rsp), %rax
	subq	%fs:40, %rax
	jne	.L7
	addq	$16, %rsp
	.cfi_remember_state
	.cfi_def_cfa_offset 16
	popq	%rbx
	.cfi_def_cfa_offset 8
	ret
.L7:
	.cfi_restore_state
	call	__stack_chk_fail@PLT
.L6:
	leaq	.LC0(%rip), %rdi
	movl	$1, %edx
	movl	$8, %esi
	xorl	%eax, %eax
	call	printf@PLT
	movl	$1, %edi
	call	exit@PLT
	.cfi_endproc
.LFE8145:
	.size	_ZN3wze6engine6actors5actor12overlapboxesC2EPS0_PS2_, .-_ZN3wze6engine6actors5actor12overlapboxesC2EPS0_PS2_
	.globl	_ZN3wze6engine6actors5actor12overlapboxesC1EPS0_PS2_
	.set	_ZN3wze6engine6actors5actor12overlapboxesC1EPS0_PS2_,_ZN3wze6engine6actors5actor12overlapboxesC2EPS0_PS2_
	.align 2
	.p2align 4
	.globl	_ZN3wze6engine6actors5actor12overlapboxesD2Ev
	.type	_ZN3wze6engine6actors5actor12overlapboxesD2Ev, @function
_ZN3wze6engine6actors5actor12overlapboxesD2Ev:
.LFB8148:
	.cfi_startproc
	movq	16(%rdi), %rdx
	movq	24(%rdi), %rax
	cmpq	$1, %rdx
	jbe	.L14
	pushq	%rbp
	.cfi_def_cfa_offset 16
	.cfi_offset 6, -16
	movq	%rdi, %rbp
	pushq	%rbx
	.cfi_def_cfa_offset 24
	.cfi_offset 3, -24
	movl	$1, %ebx
	subq	$8, %rsp
	.cfi_def_cfa_offset 32
	.p2align 4,,10
	.p2align 3
.L12:
	movq	(%rax,%rbx,8), %rdi
	testq	%rdi, %rdi
	je	.L10
	movl	$16, %esi
	addq	$1, %rbx
	call	_ZdlPvm@PLT
	movq	16(%rbp), %rdx
	movq	24(%rbp), %rax
	cmpq	%rdx, %rbx
	jb	.L12
	addq	$8, %rsp
	.cfi_remember_state
	.cfi_def_cfa_offset 24
	movq	%rax, %rdi
	popq	%rbx
	.cfi_restore 3
	.cfi_def_cfa_offset 16
	popq	%rbp
	.cfi_restore 6
	.cfi_def_cfa_offset 8
	jmp	free@PLT
	.p2align 4,,10
	.p2align 3
.L10:
	.cfi_restore_state
	addq	$1, %rbx
	cmpq	%rdx, %rbx
	jb	.L12
	addq	$8, %rsp
	.cfi_def_cfa_offset 24
	movq	%rax, %rdi
	popq	%rbx
	.cfi_restore 3
	.cfi_def_cfa_offset 16
	popq	%rbp
	.cfi_restore 6
	.cfi_def_cfa_offset 8
	jmp	free@PLT
	.p2align 4,,10
	.p2align 3
.L14:
	movq	%rax, %rdi
	jmp	free@PLT
	.cfi_endproc
.LFE8148:
	.size	_ZN3wze6engine6actors5actor12overlapboxesD2Ev, .-_ZN3wze6engine6actors5actor12overlapboxesD2Ev
	.globl	_ZN3wze6engine6actors5actor12overlapboxesD1Ev
	.set	_ZN3wze6engine6actors5actor12overlapboxesD1Ev,_ZN3wze6engine6actors5actor12overlapboxesD2Ev
	.section	.rodata.str1.8
	.align 8
.LC1:
	.string	"wze::engine.actors[].overlapboxes[]: Illegal access to NULL OverlapBox\nParams: ID: %lld\n"
	.align 8
.LC2:
	.string	"wze::engine.actors[].overlapboxes[]: OverlapBox does not exist\nParams: ID: %lld\n"
	.text
	.align 2
	.p2align 4
	.globl	_ZN3wze6engine6actors5actor12overlapboxesixEy
	.type	_ZN3wze6engine6actors5actor12overlapboxesixEy, @function
_ZN3wze6engine6actors5actor12overlapboxesixEy:
.LFB8150:
	.cfi_startproc
	subq	$8, %rsp
	.cfi_def_cfa_offset 16
	testq	%rsi, %rsi
	je	.L22
	cmpq	16(%rdi), %rsi
	jnb	.L19
	movq	24(%rdi), %rax
	movq	(%rax,%rsi,8), %rax
	testq	%rax, %rax
	je	.L19
	addq	$8, %rsp
	.cfi_remember_state
	.cfi_def_cfa_offset 8
	ret
.L19:
	.cfi_restore_state
	leaq	.LC2(%rip), %rdi
	xorl	%eax, %eax
	call	printf@PLT
	movl	$1, %edi
	call	exit@PLT
.L22:
	leaq	.LC1(%rip), %rdi
	xorl	%eax, %eax
	call	printf@PLT
	movl	$1, %edi
	call	exit@PLT
	.cfi_endproc
.LFE8150:
	.size	_ZN3wze6engine6actors5actor12overlapboxesixEy, .-_ZN3wze6engine6actors5actor12overlapboxesixEy
	.align 2
	.p2align 4
	.globl	_ZN3wze6engine6actors5actor12overlapboxes10overlapboxC2EPS0_PS2_
	.type	_ZN3wze6engine6actors5actor12overlapboxes10overlapboxC2EPS0_PS2_, @function
_ZN3wze6engine6actors5actor12overlapboxes10overlapboxC2EPS0_PS2_:
.LFB8152:
	.cfi_startproc
	movq	%rsi, (%rdi)
	movq	%rdx, 8(%rdi)
	ret
	.cfi_endproc
.LFE8152:
	.size	_ZN3wze6engine6actors5actor12overlapboxes10overlapboxC2EPS0_PS2_, .-_ZN3wze6engine6actors5actor12overlapboxes10overlapboxC2EPS0_PS2_
	.globl	_ZN3wze6engine6actors5actor12overlapboxes10overlapboxC1EPS0_PS2_
	.set	_ZN3wze6engine6actors5actor12overlapboxes10overlapboxC1EPS0_PS2_,_ZN3wze6engine6actors5actor12overlapboxes10overlapboxC2EPS0_PS2_
	.align 2
	.p2align 4
	.globl	_ZN3wze6engine6actors5actor12overlapboxes10overlapboxD2Ev
	.type	_ZN3wze6engine6actors5actor12overlapboxes10overlapboxD2Ev, @function
_ZN3wze6engine6actors5actor12overlapboxes10overlapboxD2Ev:
.LFB8155:
	.cfi_startproc
	ret
	.cfi_endproc
.LFE8155:
	.size	_ZN3wze6engine6actors5actor12overlapboxes10overlapboxD2Ev, .-_ZN3wze6engine6actors5actor12overlapboxes10overlapboxD2Ev
	.globl	_ZN3wze6engine6actors5actor12overlapboxes10overlapboxD1Ev
	.set	_ZN3wze6engine6actors5actor12overlapboxes10overlapboxD1Ev,_ZN3wze6engine6actors5actor12overlapboxes10overlapboxD2Ev
	.ident	"GCC: (GNU) 13.2.1 20230801"
	.section	.note.GNU-stack,"",@progbits
